target datalayout = "e-m:e-p270:32:32-p271:32:32-p272:64:64-i64:64-i128:128-f80:128-n8:16:32:64-S128"
target triple = "x86_64-pc-linux-gnu"

%struct.Ses_Man_t_ = type { ptr, ptr, i32, i32, i32, i32, i32, i32, i32, ptr, [8 x i32], i32, i32, i32, i32, i32, i32, i32, i32, i32, [4 x i64], ptr, ptr, i32, i32, i32, i32, i32, i32, i32, ptr, [8 x i32], [100 x i64], i32, i32, i32, i32, i32, i32, i32, i32, i32, i32, i32, i64, i64, i64, i64, i64, i64, i32, i32, i32, i32 }
%struct.Vec_Int_t_ = type { i32, i32, ptr }
%struct.timespec = type { i64, i64 }
%struct.sat_solver_t = type { i32, i32, i32, i32, %struct.Sat_Mem_t_, i32, i32, ptr, ptr, i32, i32, i32, i32, i32, i64, i64, i64, ptr, ptr, i32, i32, %struct.veci_t, ptr, i32, ptr, ptr, ptr, ptr, ptr, ptr, ptr, ptr, %struct.veci_t, %struct.veci_t, %struct.veci_t, %struct.veci_t, ptr, %struct.veci_t, i32, i32, i32, double, double, i32, i32, i32, %struct.stats_t, i32, i32, i32, i32, i32, i64, i64, i64, %struct.veci_t, ptr, i32, i32, i32, %struct.veci_t, %struct.veci_t, i32, i32, i32, ptr, ptr, i32, ptr, i32, i32, %struct.veci_t, %struct.veci_t, %struct.veci_t, ptr, ptr, i32, ptr }
%struct.Sat_Mem_t_ = type { [2 x i32], [2 x i32], [2 x i32], [2 x i32], i32, i32, i32, i32, ptr }
%struct.stats_t = type { i32, i32, i32, i64, i64, i64, i64, i64, i64, i64 }
%struct.veci_t = type { i32, i32, ptr }

@stdout = external global ptr, align 8
@.str.54 = private unnamed_addr constant [24 x i8] c"SAT   CL: %7d   VA: %5d\00", align 1
@.str.55 = private unnamed_addr constant [62 x i8] c"   RE:   %2d   ST: %4.f   CO: %7.0f   DE: %6.0f    PR: %6.0f\0A\00", align 1
@.str.56 = private unnamed_addr constant [24 x i8] c"resource limit reached\0A\00", align 1

; Function Attrs: inlinehint nounwind uwtable
define internal double @Sat_Wrd2Dbl(i64 noundef %0) #2 {
  %2 = alloca i64, align 8
  store i64 %0, ptr %2, align 8, !tbaa !37
  %3 = load i64, ptr %2, align 8, !tbaa !37
  %4 = and i64 %3, 1073741823
  %5 = trunc i64 %4 to i32
  %6 = uitofp i32 %5 to double
  %7 = load i64, ptr %2, align 8, !tbaa !37
  %8 = lshr i64 %7, 30
  %9 = trunc i64 %8 to i32
  %10 = uitofp i32 %9 to double
  %11 = call double @llvm.fmuladd.f64(double 0x41D0000000000000, double %10, double %6)
  ret double %11
}

; Function Attrs: inlinehint nounwind uwtable
define internal ptr @Vec_IntLimit(ptr noundef %0) #2 {
  %2 = alloca ptr, align 8
  store ptr %0, ptr %2, align 8, !tbaa !43
  %3 = load ptr, ptr %2, align 8, !tbaa !43
  %4 = getelementptr inbounds nuw %struct.Vec_Int_t_, ptr %3, i32 0, i32 2
  %5 = load ptr, ptr %4, align 8, !tbaa !212
  %6 = load ptr, ptr %2, align 8, !tbaa !43
  %7 = getelementptr inbounds nuw %struct.Vec_Int_t_, ptr %6, i32 0, i32 1
  %8 = load i32, ptr %7, align 4, !tbaa !210
  %9 = sext i32 %8 to i64
  %10 = getelementptr inbounds i32, ptr %5, i64 %9
  ret ptr %10
}

; Function Attrs: inlinehint nounwind uwtable
define internal ptr @Vec_IntArray(ptr noundef %0) #2 {
  %2 = alloca ptr, align 8
  store ptr %0, ptr %2, align 8, !tbaa !43
  %3 = load ptr, ptr %2, align 8, !tbaa !43
  %4 = getelementptr inbounds nuw %struct.Vec_Int_t_, ptr %3, i32 0, i32 2
  %5 = load ptr, ptr %4, align 8, !tbaa !212
  ret ptr %5
}

; Function Attrs: inlinehint nounwind uwtable
define internal i64 @Abc_Clock() #2 {
  %1 = alloca i64, align 8
  %2 = alloca %struct.timespec, align 8
  %3 = alloca i32, align 4
  %4 = alloca i64, align 8
  call void @llvm.lifetime.start.p0(i64 16, ptr %2) #14
  %5 = call i32 @clock_gettime(i32 noundef 1, ptr noundef %2) #14
  %6 = icmp slt i32 %5, 0
  br i1 %6, label %7, label %8

7:                                                ; preds = %0
  store i64 -1, ptr %1, align 8
  store i32 1, ptr %3, align 4
  br label %19

8:                                                ; preds = %0
  call void @llvm.lifetime.start.p0(i64 8, ptr %4) #14
  %9 = getelementptr inbounds nuw %struct.timespec, ptr %2, i32 0, i32 0
  %10 = load i64, ptr %9, align 8, !tbaa !214
  %11 = mul nsw i64 %10, 1000000
  store i64 %11, ptr %4, align 8, !tbaa !37
  %12 = getelementptr inbounds nuw %struct.timespec, ptr %2, i32 0, i32 1
  %13 = load i64, ptr %12, align 8, !tbaa !216
  %14 = mul nsw i64 %13, 1000000
  %15 = sdiv i64 %14, 1000000000
  %16 = load i64, ptr %4, align 8, !tbaa !37
  %17 = add nsw i64 %16, %15
  store i64 %17, ptr %4, align 8, !tbaa !37
  %18 = load i64, ptr %4, align 8, !tbaa !37
  store i64 %18, ptr %1, align 8
  store i32 1, ptr %3, align 4
  call void @llvm.lifetime.end.p0(i64 8, ptr %4) #14
  br label %19

19:                                               ; preds = %8, %7
  call void @llvm.lifetime.end.p0(i64 16, ptr %2) #14
  %20 = load i64, ptr %1, align 8
  ret i64 %20
}

; Function Attrs: inlinehint nounwind uwtable
define internal i32 @Ses_ManSolve(ptr noundef %0) #2 {
  %2 = alloca i32, align 4
  %3 = alloca ptr, align 8
  %4 = alloca i32, align 4
  %5 = alloca i64, align 8
  %6 = alloca i64, align 8
  %7 = alloca i32, align 4
  store ptr %0, ptr %3, align 8, !tbaa !66
  call void @llvm.lifetime.start.p0(i64 4, ptr %4) #14
  call void @llvm.lifetime.start.p0(i64 8, ptr %5) #14
  call void @llvm.lifetime.start.p0(i64 8, ptr %6) #14
  %8 = load ptr, ptr %3, align 8, !tbaa !66
  %9 = getelementptr inbounds nuw %struct.Ses_Man_t_, ptr %8, i32 0, i32 18
  %10 = load i32, ptr %9, align 4, !tbaa !71
  %11 = icmp ne i32 %10, 0
  br i1 %11, label %12, label %24

12:                                               ; preds = %1
  %13 = load ptr, ptr %3, align 8, !tbaa !66
  %14 = getelementptr inbounds nuw %struct.Ses_Man_t_, ptr %13, i32 0, i32 0
  %15 = load ptr, ptr %14, align 8, !tbaa !73
  %16 = call i32 @sat_solver_nclauses(ptr noundef %15)
  %17 = load ptr, ptr %3, align 8, !tbaa !66
  %18 = getelementptr inbounds nuw %struct.Ses_Man_t_, ptr %17, i32 0, i32 0
  %19 = load ptr, ptr %18, align 8, !tbaa !73
  %20 = call i32 @sat_solver_nvars(ptr noundef %19)
  %21 = call i32 (ptr, ...) @printf(ptr noundef @.str.54, i32 noundef %16, i32 noundef %20)
  %22 = load ptr, ptr @stdout, align 8, !tbaa !54
  %23 = call i32 @fflush(ptr noundef %22)
  br label %24

24:                                               ; preds = %12, %1
  %25 = call i64 @Abc_Clock()
  store i64 %25, ptr %5, align 8, !tbaa !37
  %26 = load ptr, ptr %3, align 8, !tbaa !66
  %27 = getelementptr inbounds nuw %struct.Ses_Man_t_, ptr %26, i32 0, i32 0
  %28 = load ptr, ptr %27, align 8, !tbaa !73
  %29 = load ptr, ptr %3, align 8, !tbaa !66
  %30 = getelementptr inbounds nuw %struct.Ses_Man_t_, ptr %29, i32 0, i32 22
  %31 = load ptr, ptr %30, align 8, !tbaa !92
  %32 = call ptr @Vec_IntArray(ptr noundef %31)
  %33 = load ptr, ptr %3, align 8, !tbaa !66
  %34 = getelementptr inbounds nuw %struct.Ses_Man_t_, ptr %33, i32 0, i32 22
  %35 = load ptr, ptr %34, align 8, !tbaa !92
  %36 = call ptr @Vec_IntLimit(ptr noundef %35)
  %37 = load ptr, ptr %3, align 8, !tbaa !66
  %38 = getelementptr inbounds nuw %struct.Ses_Man_t_, ptr %37, i32 0, i32 13
  %39 = load i32, ptr %38, align 8, !tbaa !87
  %40 = sext i32 %39 to i64
  %41 = call i32 @sat_solver_solve(ptr noundef %28, ptr noundef %32, ptr noundef %36, i64 noundef %40, i64 noundef 0, i64 noundef 0, i64 noundef 0)
  store i32 %41, ptr %4, align 4, !tbaa !10
  %42 = call i64 @Abc_Clock()
  %43 = load i64, ptr %5, align 8, !tbaa !37
  %44 = sub nsw i64 %42, %43
  store i64 %44, ptr %6, align 8, !tbaa !37
  %45 = load ptr, ptr %3, align 8, !tbaa !66
  %46 = getelementptr inbounds nuw %struct.Ses_Man_t_, ptr %45, i32 0, i32 18
  %47 = load i32, ptr %46, align 4, !tbaa !71
  %48 = icmp ne i32 %47, 0
  br i1 %48, label %49, label %81

49:                                               ; preds = %24
  %50 = load i32, ptr %4, align 4, !tbaa !10
  %51 = load ptr, ptr %3, align 8, !tbaa !66
  %52 = getelementptr inbounds nuw %struct.Ses_Man_t_, ptr %51, i32 0, i32 0
  %53 = load ptr, ptr %52, align 8, !tbaa !73
  %54 = getelementptr inbounds nuw %struct.sat_solver_t, ptr %53, i32 0, i32 46
  %55 = getelementptr inbounds nuw %struct.stats_t, ptr %54, i32 0, i32 0
  %56 = load i32, ptr %55, align 8, !tbaa !277
  %57 = zext i32 %56 to i64
  %58 = call double @Sat_Wrd2Dbl(i64 noundef %57)
  %59 = load ptr, ptr %3, align 8, !tbaa !66
  %60 = getelementptr inbounds nuw %struct.Ses_Man_t_, ptr %59, i32 0, i32 0
  %61 = load ptr, ptr %60, align 8, !tbaa !73
  %62 = getelementptr inbounds nuw %struct.sat_solver_t, ptr %61, i32 0, i32 46
  %63 = getelementptr inbounds nuw %struct.stats_t, ptr %62, i32 0, i32 6
  %64 = load i64, ptr %63, align 8, !tbaa !278
  %65 = call double @Sat_Wrd2Dbl(i64 noundef %64)
  %66 = load ptr, ptr %3, align 8, !tbaa !66
  %67 = getelementptr inbounds nuw %struct.Ses_Man_t_, ptr %66, i32 0, i32 0
  %68 = load ptr, ptr %67, align 8, !tbaa !73
  %69 = getelementptr inbounds nuw %struct.sat_solver_t, ptr %68, i32 0, i32 46
  %70 = getelementptr inbounds nuw %struct.stats_t, ptr %69, i32 0, i32 3
  %71 = load i64, ptr %70, align 8, !tbaa !279
  %72 = call double @Sat_Wrd2Dbl(i64 noundef %71)
  %73 = load ptr, ptr %3, align 8, !tbaa !66
  %74 = getelementptr inbounds nuw %struct.Ses_Man_t_, ptr %73, i32 0, i32 0
  %75 = load ptr, ptr %74, align 8, !tbaa !73
  %76 = getelementptr inbounds nuw %struct.sat_solver_t, ptr %75, i32 0, i32 46
  %77 = getelementptr inbounds nuw %struct.stats_t, ptr %76, i32 0, i32 4
  %78 = load i64, ptr %77, align 8, !tbaa !280
  %79 = call double @Sat_Wrd2Dbl(i64 noundef %78)
  %80 = call i32 (ptr, ...) @printf(ptr noundef @.str.55, i32 noundef %50, double noundef %58, double noundef %65, double noundef %72, double noundef %79)
  br label %81

81:                                               ; preds = %49, %24
  %82 = load i64, ptr %6, align 8, !tbaa !37
  %83 = load ptr, ptr %3, align 8, !tbaa !66
  %84 = getelementptr inbounds nuw %struct.Ses_Man_t_, ptr %83, i32 0, i32 44
  %85 = load i64, ptr %84, align 8, !tbaa !122
  %86 = add nsw i64 %85, %82
  store i64 %86, ptr %84, align 8, !tbaa !122
  %87 = load i32, ptr %4, align 4, !tbaa !10
  %88 = icmp eq i32 %87, 1
  br i1 %88, label %89, label %99

89:                                               ; preds = %81
  %90 = load ptr, ptr %3, align 8, !tbaa !66
  %91 = getelementptr inbounds nuw %struct.Ses_Man_t_, ptr %90, i32 0, i32 50
  %92 = load i32, ptr %91, align 8, !tbaa !185
  %93 = add nsw i32 %92, 1
  store i32 %93, ptr %91, align 8, !tbaa !185
  %94 = load i64, ptr %6, align 8, !tbaa !37
  %95 = load ptr, ptr %3, align 8, !tbaa !66
  %96 = getelementptr inbounds nuw %struct.Ses_Man_t_, ptr %95, i32 0, i32 45
  %97 = load i64, ptr %96, align 8, !tbaa !123
  %98 = add nsw i64 %97, %94
  store i64 %98, ptr %96, align 8, !tbaa !123
  store i32 1, ptr %2, align 4
  store i32 1, ptr %7, align 4
  br label %129

99:                                               ; preds = %81
  %100 = load i32, ptr %4, align 4, !tbaa !10
  %101 = icmp eq i32 %100, -1
  br i1 %101, label %102, label %112

102:                                              ; preds = %99
  %103 = load ptr, ptr %3, align 8, !tbaa !66
  %104 = getelementptr inbounds nuw %struct.Ses_Man_t_, ptr %103, i32 0, i32 51
  %105 = load i32, ptr %104, align 4, !tbaa !186
  %106 = add nsw i32 %105, 1
  store i32 %106, ptr %104, align 4, !tbaa !186
  %107 = load i64, ptr %6, align 8, !tbaa !37
  %108 = load ptr, ptr %3, align 8, !tbaa !66
  %109 = getelementptr inbounds nuw %struct.Ses_Man_t_, ptr %108, i32 0, i32 46
  %110 = load i64, ptr %109, align 8, !tbaa !124
  %111 = add nsw i64 %110, %107
  store i64 %111, ptr %109, align 8, !tbaa !124
  store i32 0, ptr %2, align 4
  store i32 1, ptr %7, align 4
  br label %129

112:                                              ; preds = %99
  %113 = load ptr, ptr %3, align 8, !tbaa !66
  %114 = getelementptr inbounds nuw %struct.Ses_Man_t_, ptr %113, i32 0, i32 52
  %115 = load i32, ptr %114, align 8, !tbaa !187
  %116 = add nsw i32 %115, 1
  store i32 %116, ptr %114, align 8, !tbaa !187
  %117 = load i64, ptr %6, align 8, !tbaa !37
  %118 = load ptr, ptr %3, align 8, !tbaa !66
  %119 = getelementptr inbounds nuw %struct.Ses_Man_t_, ptr %118, i32 0, i32 47
  %120 = load i64, ptr %119, align 8, !tbaa !125
  %121 = add nsw i64 %120, %117
  store i64 %121, ptr %119, align 8, !tbaa !125
  %122 = load ptr, ptr %3, align 8, !tbaa !66
  %123 = getelementptr inbounds nuw %struct.Ses_Man_t_, ptr %122, i32 0, i32 18
  %124 = load i32, ptr %123, align 4, !tbaa !71
  %125 = icmp ne i32 %124, 0
  br i1 %125, label %126, label %128

126:                                              ; preds = %112
  %127 = call i32 (ptr, ...) @printf(ptr noundef @.str.56)
  br label %128

128:                                              ; preds = %126, %112
  store i32 2, ptr %2, align 4
  store i32 1, ptr %7, align 4
  br label %129

129:                                              ; preds = %128, %102, %89
  call void @llvm.lifetime.end.p0(i64 8, ptr %6) #14
  call void @llvm.lifetime.end.p0(i64 8, ptr %5) #14
  call void @llvm.lifetime.end.p0(i64 4, ptr %4) #14
  %130 = load i32, ptr %2, align 4
  ret i32 %130
}