; Function Attrs: inlinehint nounwind uwtable
define internal fastcc range(i32 0, 3) i32 @Ses_ManSolve(ptr noundef captures(none) %0) unnamed_addr #6 {
  %2 = alloca %struct.timespec, align 8
  %3 = alloca %struct.timespec, align 8
  %4 = getelementptr inbounds nuw i8, ptr %0, i64 116
  %5 = load i32, ptr %4, align 4, !tbaa !66
  %.not = icmp eq i32 %5, 0
  br i1 %.not, label %14, label %6

6:                                                ; preds = %1
  %7 = load ptr, ptr %0, align 8, !tbaa !91
  %8 = tail call i32 @sat_solver_nclauses(ptr noundef %7) #29
  %9 = load ptr, ptr %0, align 8, !tbaa !91
  %10 = tail call i32 @sat_solver_nvars(ptr noundef %9) #29
  %11 = tail call i32 (ptr, ...) @printf(ptr noundef nonnull dereferenceable(1) @.str.54, i32 noundef %8, i32 noundef %10)
  %12 = load ptr, ptr @stdout, align 8, !tbaa !116
  %13 = tail call i32 @fflush(ptr noundef %12)
  br label %14

14:                                               ; preds = %6, %1
  call void @llvm.lifetime.start.p0(i64 16, ptr nonnull %3) #29
  %15 = call i32 @clock_gettime(i32 noundef 1, ptr noundef nonnull %3) #29
  %16 = icmp slt i32 %15, 0
  br i1 %16, label %Abc_Clock.exit, label %17

17:                                               ; preds = %14
  %18 = load i64, ptr %3, align 8, !tbaa !58
  %.neg35 = mul i64 %18, -1000000
  %19 = getelementptr inbounds nuw i8, ptr %3, i64 8
  %20 = load i64, ptr %19, align 8, !tbaa !60
  %.neg = sdiv i64 %20, -1000
  %.neg36 = add i64 %.neg, %.neg35
  br label %Abc_Clock.exit

Abc_Clock.exit:                                   ; preds = %14, %17
  %.0.i.neg = phi i64 [ %.neg36, %17 ], [ 1, %14 ]
  call void @llvm.lifetime.end.p0(i64 16, ptr nonnull %3) #29
  %21 = load ptr, ptr %0, align 8, !tbaa !91
  %22 = getelementptr inbounds nuw i8, ptr %0, i64 168
  %23 = load ptr, ptr %22, align 8, !tbaa !109
  %24 = getelementptr i8, ptr %23, i64 8
  %.val = load ptr, ptr %24, align 8, !tbaa !44
  %25 = getelementptr i8, ptr %23, i64 4
  %.val31 = load i32, ptr %25, align 4, !tbaa !40
  %26 = sext i32 %.val31 to i64
  %27 = getelementptr inbounds i32, ptr %.val, i64 %26
  %28 = getelementptr inbounds nuw i8, ptr %0, i64 96
  %29 = load i32, ptr %28, align 8, !tbaa !104
  %30 = sext i32 %29 to i64
  %31 = call i32 @sat_solver_solve(ptr noundef %21, ptr noundef %.val, ptr noundef %27, i64 noundef %30, i64 noundef 0, i64 noundef 0, i64 noundef 0) #29
  call void @llvm.lifetime.start.p0(i64 16, ptr nonnull %2) #29
  %32 = call i32 @clock_gettime(i32 noundef 1, ptr noundef nonnull %2) #29
  %33 = icmp slt i32 %32, 0
  br i1 %33, label %Abc_Clock.exit34, label %34

34:                                               ; preds = %Abc_Clock.exit
  %35 = load i64, ptr %2, align 8, !tbaa !58
  %36 = mul nsw i64 %35, 1000000
  %37 = getelementptr inbounds nuw i8, ptr %2, i64 8
  %38 = load i64, ptr %37, align 8, !tbaa !60
  %39 = sdiv i64 %38, 1000
  %40 = add nsw i64 %39, %36
  br label %Abc_Clock.exit34

Abc_Clock.exit34:                                 ; preds = %Abc_Clock.exit, %34
  %.0.i33 = phi i64 [ %40, %34 ], [ -1, %Abc_Clock.exit ]
  call void @llvm.lifetime.end.p0(i64 16, ptr nonnull %2) #29
  %41 = add i64 %.0.i33, %.0.i.neg
  %42 = load i32, ptr %4, align 4, !tbaa !66
  %.not29 = icmp eq i32 %42, 0
  br i1 %.not29, label %80, label %43

43:                                               ; preds = %Abc_Clock.exit34
  %44 = load ptr, ptr %0, align 8, !tbaa !91
  %45 = getelementptr inbounds nuw i8, ptr %44, i64 400
  %46 = load i32, ptr %45, align 8, !tbaa !312
  %47 = and i32 %46, 1073741823
  %48 = uitofp nneg i32 %47 to double
  %49 = lshr i32 %46, 30
  %50 = uitofp nneg i32 %49 to double
  %51 = call double @llvm.fmuladd.f64(double %50, double 0x41D0000000000000, double %48)
  %52 = getelementptr inbounds nuw i8, ptr %44, i64 440
  %53 = load i64, ptr %52, align 8, !tbaa !313
  %54 = trunc i64 %53 to i32
  %55 = and i32 %54, 1073741823
  %56 = uitofp nneg i32 %55 to double
  %57 = lshr i64 %53, 30
  %58 = trunc i64 %57 to i32
  %59 = uitofp i32 %58 to double
  %60 = call double @llvm.fmuladd.f64(double %59, double 0x41D0000000000000, double %56)
  %61 = getelementptr inbounds nuw i8, ptr %44, i64 416
  %62 = load i64, ptr %61, align 8, !tbaa !314
  %63 = trunc i64 %62 to i32
  %64 = and i32 %63, 1073741823
  %65 = uitofp nneg i32 %64 to double
  %66 = lshr i64 %62, 30
  %67 = trunc i64 %66 to i32
  %68 = uitofp i32 %67 to double
  %69 = call double @llvm.fmuladd.f64(double %68, double 0x41D0000000000000, double %65)
  %70 = getelementptr inbounds nuw i8, ptr %44, i64 424
  %71 = load i64, ptr %70, align 8, !tbaa !315
  %72 = trunc i64 %71 to i32
  %73 = and i32 %72, 1073741823
  %74 = uitofp nneg i32 %73 to double
  %75 = lshr i64 %71, 30
  %76 = trunc i64 %75 to i32
  %77 = uitofp i32 %76 to double
  %78 = call double @llvm.fmuladd.f64(double %77, double 0x41D0000000000000, double %74)
  %79 = call i32 (ptr, ...) @printf(ptr noundef nonnull dereferenceable(1) @.str.55, i32 noundef %31, double noundef %51, double noundef %60, double noundef %69, double noundef %78)
  br label %80

80:                                               ; preds = %43, %Abc_Clock.exit34
  %81 = getelementptr inbounds nuw i8, ptr %0, i64 1096
  %82 = load i64, ptr %81, align 8, !tbaa !135
  %83 = add nsw i64 %82, %41
  store i64 %83, ptr %81, align 8, !tbaa !135
  switch i32 %31, label %98 [
    i32 1, label %84
    i32 -1, label %91
  ]

84:                                               ; preds = %80
  %85 = getelementptr inbounds nuw i8, ptr %0, i64 1144
  %86 = load i32, ptr %85, align 8, !tbaa !206
  %87 = add nsw i32 %86, 1
  store i32 %87, ptr %85, align 8, !tbaa !206
  %88 = getelementptr inbounds nuw i8, ptr %0, i64 1104
  %89 = load i64, ptr %88, align 8, !tbaa !136
  %90 = add nsw i64 %89, %41
  store i64 %90, ptr %88, align 8, !tbaa !136
  br label %107

91:                                               ; preds = %80
  %92 = getelementptr inbounds nuw i8, ptr %0, i64 1148
  %93 = load i32, ptr %92, align 4, !tbaa !207
  %94 = add nsw i32 %93, 1
  store i32 %94, ptr %92, align 4, !tbaa !207
  %95 = getelementptr inbounds nuw i8, ptr %0, i64 1112
  %96 = load i64, ptr %95, align 8, !tbaa !137
  %97 = add nsw i64 %96, %41
  store i64 %97, ptr %95, align 8, !tbaa !137
  br label %107

98:                                               ; preds = %80
  %99 = getelementptr inbounds nuw i8, ptr %0, i64 1152
  %100 = load i32, ptr %99, align 8, !tbaa !208
  %101 = add nsw i32 %100, 1
  store i32 %101, ptr %99, align 8, !tbaa !208
  %102 = getelementptr inbounds nuw i8, ptr %0, i64 1120
  %103 = load i64, ptr %102, align 8, !tbaa !138
  %104 = add nsw i64 %103, %41
  store i64 %104, ptr %102, align 8, !tbaa !138
  %105 = load i32, ptr %4, align 4, !tbaa !66
  %.not30 = icmp eq i32 %105, 0
  br i1 %.not30, label %107, label %106

106:                                              ; preds = %98
  %puts = call i32 @puts(ptr nonnull dereferenceable(1) @str.13)
  br label %107

107:                                              ; preds = %98, %106, %91, %84
  %.0 = phi i32 [ 1, %84 ], [ 0, %91 ], [ 2, %106 ], [ 2, %98 ]
  ret i32 %.0
}